; Function Attrs: mustprogress nounwind uwtable
define dso_local void @_ZN4llvm21verifyMachineFunctionERKNSt7__cxx1112basic_stringIcSt11char_traitsIcESaIcEEERKNS_15MachineFunctionE(ptr noundef nonnull align 8 dereferenceable(32) %0, ptr noundef nonnull align 8 dereferenceable(1041) %1) local_unnamed_addr #0 {
  %3 = alloca %"struct.(anonymous namespace)::MachineVerifier", align 8
  %4 = alloca %"class.llvm::Twine", align 8
  %5 = alloca %"class.llvm::Twine", align 8
  %6 = alloca %"class.llvm::Twine", align 8
  %7 = alloca %"class.llvm::Twine", align 8
  %8 = alloca %"class.llvm::Twine", align 8
  %9 = tail call noundef ptr @_ZNKSt7__cxx1112basic_stringIcSt11char_traitsIcESaIcEE5c_strEv(ptr noundef nonnull align 8 dereferenceable(32) %0) #18
  call fastcc void @_ZN12_GLOBAL__N_115MachineVerifierC2EPN4llvm4PassEPKc(ptr noundef nonnull align 8 dereferenceable(1840) %3, ptr noundef null, ptr noundef %9)
  %10 = call fastcc noundef i32 @_ZN12_GLOBAL__N_115MachineVerifier6verifyERKN4llvm15MachineFunctionE(ptr noundef nonnull align 8 dereferenceable(1840) %3, ptr noundef nonnull align 8 dereferenceable(1041) %1)
  call fastcc void @_ZN12_GLOBAL__N_115MachineVerifierD2Ev(ptr noundef nonnull align 8 dereferenceable(1840) %3) #18
  %.not = icmp eq i32 %10, 0
  br i1 %.not, label %18, label %11

11:                                               ; preds = %2
  %12 = getelementptr inbounds nuw i8, ptr %6, i64 32
  %13 = getelementptr inbounds nuw i8, ptr %6, i64 33
  store i8 1, ptr %13, align 1
  store ptr @.str, ptr %6, align 8
  store i8 3, ptr %12, align 8
  %14 = getelementptr inbounds nuw i8, ptr %7, i64 32
  store i8 9, ptr %14, align 8
  %15 = getelementptr inbounds nuw i8, ptr %7, i64 33
  store i8 1, ptr %15, align 1
  store i32 %10, ptr %7, align 8
  call void @_ZN4llvmplERKNS_5TwineES2_(ptr dead_on_unwind nonnull writable sret(%"class.llvm::Twine") align 8 %5, ptr noundef nonnull align 8 dereferenceable(34) %6, ptr noundef nonnull align 8 dereferenceable(34) %7)
  %16 = getelementptr inbounds nuw i8, ptr %8, i64 32
  %17 = getelementptr inbounds nuw i8, ptr %8, i64 33
  store i8 1, ptr %17, align 1
  store ptr @.str.1, ptr %8, align 8
  store i8 3, ptr %16, align 8
  call void @_ZN4llvmplERKNS_5TwineES2_(ptr dead_on_unwind nonnull writable sret(%"class.llvm::Twine") align 8 %4, ptr noundef nonnull align 8 dereferenceable(34) %5, ptr noundef nonnull align 8 dereferenceable(34) %8)
  call void @_ZN4llvm18report_fatal_errorERKNS_5TwineEb(ptr noundef nonnull align 8 dereferenceable(34) %4, i1 noundef zeroext true) #19
  unreachable

18:                                               ; preds = %2
  ret void
}